target datalayout = "e-m:e-p270:32:32-p271:32:32-p272:64:64-i64:64-i128:128-f80:128-n8:16:32:64-S128"
target triple = "x86_64-pc-linux-gnu"

%struct.AVRational = type { i32, i32 }
%struct.AVPacket = type { ptr, i64, i64, ptr, i32, i32, i32, ptr, i32, i64, i64, ptr, ptr, %struct.AVRational }
%struct.AVPacketSideData = type { ptr, i64, i32 }

; Function Attrs: nounwind uwtable
define ptr @av_packet_get_side_data(ptr noundef %0, i32 noundef %1, ptr noundef %2) #0 {
  %4 = alloca ptr, align 8
  %5 = alloca ptr, align 8
  %6 = alloca i32, align 4
  %7 = alloca ptr, align 8
  %8 = alloca i32, align 4
  %9 = alloca i32, align 4
  store ptr %0, ptr %5, align 8, !tbaa !4
  store i32 %1, ptr %6, align 4, !tbaa !28
  store ptr %2, ptr %7, align 8, !tbaa !53
  call void @llvm.lifetime.start.p0(i64 4, ptr %8) #9
  store i32 0, ptr %8, align 4, !tbaa !28
  br label %10

10:                                               ; preds = %50, %3
  %11 = load i32, ptr %8, align 4, !tbaa !28
  %12 = load ptr, ptr %5, align 8, !tbaa !4
  %13 = getelementptr inbounds nuw %struct.AVPacket, ptr %12, i32 0, i32 8
  %14 = load i32, ptr %13, align 8, !tbaa !24
  %15 = icmp slt i32 %11, %14
  br i1 %15, label %16, label %53

16:                                               ; preds = %10
  %17 = load ptr, ptr %5, align 8, !tbaa !4
  %18 = getelementptr inbounds nuw %struct.AVPacket, ptr %17, i32 0, i32 7
  %19 = load ptr, ptr %18, align 8, !tbaa !23
  %20 = load i32, ptr %8, align 4, !tbaa !28
  %21 = sext i32 %20 to i64
  %22 = getelementptr inbounds %struct.AVPacketSideData, ptr %19, i64 %21
  %23 = getelementptr inbounds nuw %struct.AVPacketSideData, ptr %22, i32 0, i32 2
  %24 = load i32, ptr %23, align 8, !tbaa !48
  %25 = load i32, ptr %6, align 4, !tbaa !28
  %26 = icmp eq i32 %24, %25
  br i1 %26, label %27, label %49

27:                                               ; preds = %16
  %28 = load ptr, ptr %7, align 8, !tbaa !53
  %29 = icmp ne ptr %28, null
  br i1 %29, label %30, label %40

30:                                               ; preds = %27
  %31 = load ptr, ptr %5, align 8, !tbaa !4
  %32 = getelementptr inbounds nuw %struct.AVPacket, ptr %31, i32 0, i32 7
  %33 = load ptr, ptr %32, align 8, !tbaa !23
  %34 = load i32, ptr %8, align 4, !tbaa !28
  %35 = sext i32 %34 to i64
  %36 = getelementptr inbounds %struct.AVPacketSideData, ptr %33, i64 %35
  %37 = getelementptr inbounds nuw %struct.AVPacketSideData, ptr %36, i32 0, i32 1
  %38 = load i64, ptr %37, align 8, !tbaa !51
  %39 = load ptr, ptr %7, align 8, !tbaa !53
  store i64 %38, ptr %39, align 8, !tbaa !43
  br label %40

40:                                               ; preds = %30, %27
  %41 = load ptr, ptr %5, align 8, !tbaa !4
  %42 = getelementptr inbounds nuw %struct.AVPacket, ptr %41, i32 0, i32 7
  %43 = load ptr, ptr %42, align 8, !tbaa !23
  %44 = load i32, ptr %8, align 4, !tbaa !28
  %45 = sext i32 %44 to i64
  %46 = getelementptr inbounds %struct.AVPacketSideData, ptr %43, i64 %45
  %47 = getelementptr inbounds nuw %struct.AVPacketSideData, ptr %46, i32 0, i32 0
  %48 = load ptr, ptr %47, align 8, !tbaa !50
  store ptr %48, ptr %4, align 8
  store i32 1, ptr %9, align 4
  br label %59

49:                                               ; preds = %16
  br label %50

50:                                               ; preds = %49
  %51 = load i32, ptr %8, align 4, !tbaa !28
  %52 = add nsw i32 %51, 1
  store i32 %52, ptr %8, align 4, !tbaa !28
  br label %10, !llvm.loop !55

53:                                               ; preds = %10
  %54 = load ptr, ptr %7, align 8, !tbaa !53
  %55 = icmp ne ptr %54, null
  br i1 %55, label %56, label %58

56:                                               ; preds = %53
  %57 = load ptr, ptr %7, align 8, !tbaa !53
  store i64 0, ptr %57, align 8, !tbaa !43
  br label %58

58:                                               ; preds = %56, %53
  store ptr null, ptr %4, align 8
  store i32 1, ptr %9, align 4
  br label %59

59:                                               ; preds = %58, %40
  call void @llvm.lifetime.end.p0(i64 4, ptr %8) #9
  %60 = load ptr, ptr %4, align 8
  ret ptr %60
}