; Function Attrs: nofree norecurse nosync nounwind memory(read, argmem: readwrite, inaccessiblemem: none) uwtable
define ptr @av_packet_get_side_data(ptr noundef readonly captures(none) %0, i32 noundef %1, ptr noundef writeonly captures(address_is_null) %2) local_unnamed_addr #8 {
  %4 = getelementptr inbounds nuw i8, ptr %0, i64 56
  %5 = load i32, ptr %4, align 8, !tbaa !22
  %6 = icmp sgt i32 %5, 0
  br i1 %6, label %.lr.ph, label %._crit_edge

.lr.ph:                                           ; preds = %3
  %7 = getelementptr inbounds nuw i8, ptr %0, i64 48
  %8 = load ptr, ptr %7, align 8, !tbaa !21
  %wide.trip.count = zext nneg i32 %5 to i64
  br label %10

9:                                                ; preds = %10
  %indvars.iv.next = add nuw nsw i64 %indvars.iv, 1
  %exitcond.not = icmp eq i64 %indvars.iv.next, %wide.trip.count
  br i1 %exitcond.not, label %._crit_edge, label %10, !llvm.loop !40

10:                                               ; preds = %.lr.ph, %9
  %indvars.iv = phi i64 [ 0, %.lr.ph ], [ %indvars.iv.next, %9 ]
  %11 = getelementptr inbounds nuw %struct.AVPacketSideData, ptr %8, i64 %indvars.iv
  %12 = getelementptr inbounds nuw i8, ptr %11, i64 16
  %13 = load i32, ptr %12, align 8, !tbaa !35
  %14 = icmp eq i32 %13, %1
  br i1 %14, label %15, label %9

15:                                               ; preds = %10
  %.not16 = icmp eq ptr %2, null
  br i1 %.not16, label %19, label %16

16:                                               ; preds = %15
  %17 = getelementptr inbounds nuw i8, ptr %11, i64 8
  %18 = load i64, ptr %17, align 8, !tbaa !38
  store i64 %18, ptr %2, align 8, !tbaa !41
  br label %19

19:                                               ; preds = %16, %15
  %20 = load ptr, ptr %11, align 8, !tbaa !37
  br label %22

._crit_edge:                                      ; preds = %9, %3
  %.not = icmp eq ptr %2, null
  br i1 %.not, label %22, label %21

21:                                               ; preds = %._crit_edge
  store i64 0, ptr %2, align 8, !tbaa !41
  br label %22

22:                                               ; preds = %._crit_edge, %21, %19
  %.014 = phi ptr [ %20, %19 ], [ null, %21 ], [ null, %._crit_edge ]
  ret ptr %.014
}